target datalayout = "e-m:e-p270:32:32-p271:32:32-p272:64:64-i64:64-i128:128-f80:128-n8:16:32:64-S128"
target triple = "x86_64-pc-linux-gnu"

%struct.PLpgSQL_stmt_block = type { i32, i32, i32, ptr, ptr, i32, ptr, ptr }
%struct.ForEachState = type { ptr, i32 }
%struct.PLpgSQL_exception_block = type { i32, i32, ptr }
%struct.List = type { i32, i32, i32, ptr, [0 x %union.ListCell] }
%union.ListCell = type { ptr }
%struct.PLpgSQL_exception = type { i32, ptr, ptr }
%struct.PLpgSQL_condition = type { i32, ptr, ptr }

@dump_indent = internal global i32 0, align 4
@.str.72 = private unnamed_addr constant [10 x i8] c"*unnamed*\00", align 1
@.str.73 = private unnamed_addr constant [14 x i8] c"BLOCK <<%s>>\0A\00", align 1
@.str.74 = private unnamed_addr constant [20 x i8] c"    EXCEPTION WHEN \00", align 1
@.str.75 = private unnamed_addr constant [5 x i8] c" OR \00", align 1
@.str.76 = private unnamed_addr constant [3 x i8] c"%s\00", align 1
@.str.77 = private unnamed_addr constant [7 x i8] c" THEN\0A\00", align 1
@.str.78 = private unnamed_addr constant [15 x i8] c"    END -- %s\0A\00", align 1
@.str.79 = private unnamed_addr constant [2 x i8] c" \00", align 1

; Function Attrs: nounwind uwtable
define internal void @dump_stmts(ptr noundef %0) #0 {
  %2 = alloca ptr, align 8
  %3 = alloca ptr, align 8
  %4 = alloca %struct.ForEachState, align 8
  store ptr %0, ptr %2, align 8
  call void @llvm.lifetime.start.p0(i64 8, ptr %3) #8
  %5 = load i32, ptr @dump_indent, align 4
  %6 = add i32 %5, 2
  store i32 %6, ptr @dump_indent, align 4
  call void @llvm.lifetime.start.p0(i64 16, ptr %4) #8
  %7 = getelementptr inbounds nuw %struct.ForEachState, ptr %4, i32 0, i32 0
  %8 = load ptr, ptr %2, align 8
  store ptr %8, ptr %7, align 8
  %9 = getelementptr inbounds nuw %struct.ForEachState, ptr %4, i32 0, i32 1
  store i32 0, ptr %9, align 8
  %10 = getelementptr i8, ptr %4, i64 12
  call void @llvm.memset.p0.i64(ptr align 4 %10, i8 0, i64 4, i1 false)
  br label %11

11:                                               ; preds = %40, %1
  %12 = getelementptr inbounds nuw %struct.ForEachState, ptr %4, i32 0, i32 0
  %13 = load ptr, ptr %12, align 8
  %14 = icmp ne ptr %13, null
  br i1 %14, label %15, label %32

15:                                               ; preds = %11
  %16 = getelementptr inbounds nuw %struct.ForEachState, ptr %4, i32 0, i32 1
  %17 = load i32, ptr %16, align 8
  %18 = getelementptr inbounds nuw %struct.ForEachState, ptr %4, i32 0, i32 0
  %19 = load ptr, ptr %18, align 8
  %20 = getelementptr inbounds nuw %struct.List, ptr %19, i32 0, i32 1
  %21 = load i32, ptr %20, align 4
  %22 = icmp slt i32 %17, %21
  br i1 %22, label %23, label %32

23:                                               ; preds = %15
  %24 = getelementptr inbounds nuw %struct.ForEachState, ptr %4, i32 0, i32 0
  %25 = load ptr, ptr %24, align 8
  %26 = getelementptr inbounds nuw %struct.List, ptr %25, i32 0, i32 3
  %27 = load ptr, ptr %26, align 8
  %28 = getelementptr inbounds nuw %struct.ForEachState, ptr %4, i32 0, i32 1
  %29 = load i32, ptr %28, align 8
  %30 = sext i32 %29 to i64
  %31 = getelementptr inbounds %union.ListCell, ptr %27, i64 %30
  store ptr %31, ptr %3, align 8
  br label %33

32:                                               ; preds = %15, %11
  store ptr null, ptr %3, align 8
  br label %33

33:                                               ; preds = %32, %23
  %34 = phi i32 [ 1, %23 ], [ 0, %32 ]
  %35 = icmp ne i32 %34, 0
  br i1 %35, label %37, label %36

36:                                               ; preds = %33
  call void @llvm.lifetime.end.p0(i64 16, ptr %4) #8
  br label %44

37:                                               ; preds = %33
  %38 = load ptr, ptr %3, align 8
  %39 = load ptr, ptr %38, align 8
  call void @dump_stmt(ptr noundef %39)
  br label %40

40:                                               ; preds = %37
  %41 = getelementptr inbounds nuw %struct.ForEachState, ptr %4, i32 0, i32 1
  %42 = load i32, ptr %41, align 8
  %43 = add i32 %42, 1
  store i32 %43, ptr %41, align 8
  br label %11, !llvm.loop !66

44:                                               ; preds = %36
  %45 = load i32, ptr @dump_indent, align 4
  %46 = sub i32 %45, 2
  store i32 %46, ptr @dump_indent, align 4
  call void @llvm.lifetime.end.p0(i64 8, ptr %3) #8
  ret void
}

; Function Attrs: nounwind uwtable
define internal void @dump_ind() #0 {
  %1 = alloca i32, align 4
  call void @llvm.lifetime.start.p0(i64 4, ptr %1) #8
  store i32 0, ptr %1, align 4
  br label %2

2:                                                ; preds = %8, %0
  %3 = load i32, ptr %1, align 4
  %4 = load i32, ptr @dump_indent, align 4
  %5 = icmp slt i32 %3, %4
  br i1 %5, label %6, label %11

6:                                                ; preds = %2
  %7 = call i32 (ptr, ...) @pg_printf(ptr noundef @.str.79)
  br label %8

8:                                                ; preds = %6
  %9 = load i32, ptr %1, align 4
  %10 = add i32 %9, 1
  store i32 %10, ptr %1, align 4
  br label %2, !llvm.loop !65

11:                                               ; preds = %2
  call void @llvm.lifetime.end.p0(i64 4, ptr %1) #8
  ret void
}

; Function Attrs: nounwind uwtable
define internal void @dump_block(ptr noundef %0) #0 {
  %2 = alloca ptr, align 8
  %3 = alloca ptr, align 8
  %4 = alloca ptr, align 8
  %5 = alloca %struct.ForEachState, align 8
  %6 = alloca ptr, align 8
  %7 = alloca ptr, align 8
  store ptr %0, ptr %2, align 8
  call void @llvm.lifetime.start.p0(i64 8, ptr %3) #8
  %8 = load ptr, ptr %2, align 8
  %9 = getelementptr inbounds nuw %struct.PLpgSQL_stmt_block, ptr %8, i32 0, i32 3
  %10 = load ptr, ptr %9, align 8
  %11 = icmp eq ptr %10, null
  br i1 %11, label %12, label %13

12:                                               ; preds = %1
  store ptr @.str.72, ptr %3, align 8
  br label %17

13:                                               ; preds = %1
  %14 = load ptr, ptr %2, align 8
  %15 = getelementptr inbounds nuw %struct.PLpgSQL_stmt_block, ptr %14, i32 0, i32 3
  %16 = load ptr, ptr %15, align 8
  store ptr %16, ptr %3, align 8
  br label %17

17:                                               ; preds = %13, %12
  call void @dump_ind()
  %18 = load ptr, ptr %3, align 8
  %19 = call i32 (ptr, ...) @pg_printf(ptr noundef @.str.73, ptr noundef %18)
  %20 = load ptr, ptr %2, align 8
  %21 = getelementptr inbounds nuw %struct.PLpgSQL_stmt_block, ptr %20, i32 0, i32 4
  %22 = load ptr, ptr %21, align 8
  call void @dump_stmts(ptr noundef %22)
  %23 = load ptr, ptr %2, align 8
  %24 = getelementptr inbounds nuw %struct.PLpgSQL_stmt_block, ptr %23, i32 0, i32 7
  %25 = load ptr, ptr %24, align 8
  %26 = icmp ne ptr %25, null
  br i1 %26, label %27, label %99

27:                                               ; preds = %17
  call void @llvm.lifetime.start.p0(i64 8, ptr %4) #8
  call void @llvm.lifetime.start.p0(i64 16, ptr %5) #8
  %28 = getelementptr inbounds nuw %struct.ForEachState, ptr %5, i32 0, i32 0
  %29 = load ptr, ptr %2, align 8
  %30 = getelementptr inbounds nuw %struct.PLpgSQL_stmt_block, ptr %29, i32 0, i32 7
  %31 = load ptr, ptr %30, align 8
  %32 = getelementptr inbounds nuw %struct.PLpgSQL_exception_block, ptr %31, i32 0, i32 2
  %33 = load ptr, ptr %32, align 8
  store ptr %33, ptr %28, align 8
  %34 = getelementptr inbounds nuw %struct.ForEachState, ptr %5, i32 0, i32 1
  store i32 0, ptr %34, align 8
  %35 = getelementptr i8, ptr %5, i64 12
  call void @llvm.memset.p0.i64(ptr align 4 %35, i8 0, i64 4, i1 false)
  br label %36

36:                                               ; preds = %94, %27
  %37 = getelementptr inbounds nuw %struct.ForEachState, ptr %5, i32 0, i32 0
  %38 = load ptr, ptr %37, align 8
  %39 = icmp ne ptr %38, null
  br i1 %39, label %40, label %57

40:                                               ; preds = %36
  %41 = getelementptr inbounds nuw %struct.ForEachState, ptr %5, i32 0, i32 1
  %42 = load i32, ptr %41, align 8
  %43 = getelementptr inbounds nuw %struct.ForEachState, ptr %5, i32 0, i32 0
  %44 = load ptr, ptr %43, align 8
  %45 = getelementptr inbounds nuw %struct.List, ptr %44, i32 0, i32 1
  %46 = load i32, ptr %45, align 4
  %47 = icmp slt i32 %42, %46
  br i1 %47, label %48, label %57

48:                                               ; preds = %40
  %49 = getelementptr inbounds nuw %struct.ForEachState, ptr %5, i32 0, i32 0
  %50 = load ptr, ptr %49, align 8
  %51 = getelementptr inbounds nuw %struct.List, ptr %50, i32 0, i32 3
  %52 = load ptr, ptr %51, align 8
  %53 = getelementptr inbounds nuw %struct.ForEachState, ptr %5, i32 0, i32 1
  %54 = load i32, ptr %53, align 8
  %55 = sext i32 %54 to i64
  %56 = getelementptr inbounds %union.ListCell, ptr %52, i64 %55
  store ptr %56, ptr %4, align 8
  br label %58

57:                                               ; preds = %40, %36
  store ptr null, ptr %4, align 8
  br label %58

58:                                               ; preds = %57, %48
  %59 = phi i32 [ 1, %48 ], [ 0, %57 ]
  %60 = icmp ne i32 %59, 0
  br i1 %60, label %62, label %61

61:                                               ; preds = %58
  call void @llvm.lifetime.end.p0(i64 16, ptr %5) #8
  br label %98

62:                                               ; preds = %58
  call void @llvm.lifetime.start.p0(i64 8, ptr %6) #8
  %63 = load ptr, ptr %4, align 8
  %64 = load ptr, ptr %63, align 8
  store ptr %64, ptr %6, align 8
  call void @llvm.lifetime.start.p0(i64 8, ptr %7) #8
  call void @dump_ind()
  %65 = call i32 (ptr, ...) @pg_printf(ptr noundef @.str.74)
  %66 = load ptr, ptr %6, align 8
  %67 = getelementptr inbounds nuw %struct.PLpgSQL_exception, ptr %66, i32 0, i32 1
  %68 = load ptr, ptr %67, align 8
  store ptr %68, ptr %7, align 8
  br label %69

69:                                               ; preds = %85, %62
  %70 = load ptr, ptr %7, align 8
  %71 = icmp ne ptr %70, null
  br i1 %71, label %72, label %89

72:                                               ; preds = %69
  %73 = load ptr, ptr %7, align 8
  %74 = load ptr, ptr %6, align 8
  %75 = getelementptr inbounds nuw %struct.PLpgSQL_exception, ptr %74, i32 0, i32 1
  %76 = load ptr, ptr %75, align 8
  %77 = icmp ne ptr %73, %76
  br i1 %77, label %78, label %80

78:                                               ; preds = %72
  %79 = call i32 (ptr, ...) @pg_printf(ptr noundef @.str.75)
  br label %80

80:                                               ; preds = %78, %72
  %81 = load ptr, ptr %7, align 8
  %82 = getelementptr inbounds nuw %struct.PLpgSQL_condition, ptr %81, i32 0, i32 1
  %83 = load ptr, ptr %82, align 8
  %84 = call i32 (ptr, ...) @pg_printf(ptr noundef @.str.76, ptr noundef %83)
  br label %85

85:                                               ; preds = %80
  %86 = load ptr, ptr %7, align 8
  %87 = getelementptr inbounds nuw %struct.PLpgSQL_condition, ptr %86, i32 0, i32 2
  %88 = load ptr, ptr %87, align 8
  store ptr %88, ptr %7, align 8
  br label %69, !llvm.loop !17

89:                                               ; preds = %69
  %90 = call i32 (ptr, ...) @pg_printf(ptr noundef @.str.77)
  %91 = load ptr, ptr %6, align 8
  %92 = getelementptr inbounds nuw %struct.PLpgSQL_exception, ptr %91, i32 0, i32 2
  %93 = load ptr, ptr %92, align 8
  call void @dump_stmts(ptr noundef %93)
  call void @llvm.lifetime.end.p0(i64 8, ptr %7) #8
  call void @llvm.lifetime.end.p0(i64 8, ptr %6) #8
  br label %94

94:                                               ; preds = %89
  %95 = getelementptr inbounds nuw %struct.ForEachState, ptr %5, i32 0, i32 1
  %96 = load i32, ptr %95, align 8
  %97 = add i32 %96, 1
  store i32 %97, ptr %95, align 8
  br label %36, !llvm.loop !18

98:                                               ; preds = %61
  call void @llvm.lifetime.end.p0(i64 8, ptr %4) #8
  br label %99

99:                                               ; preds = %98, %17
  call void @dump_ind()
  %100 = load ptr, ptr %3, align 8
  %101 = call i32 (ptr, ...) @pg_printf(ptr noundef @.str.78, ptr noundef %100)
  call void @llvm.lifetime.end.p0(i64 8, ptr %3) #8
  ret void
}