; Function Attrs: nounwind uwtable
define internal fastcc void @dump_block(ptr noundef readonly captures(none) %0) unnamed_addr #1 {
  %2 = getelementptr inbounds nuw i8, ptr %0, i64 16
  %3 = load ptr, ptr %2, align 8
  %4 = icmp eq ptr %3, null
  %.str.72. = select i1 %4, ptr @.str.72, ptr %3
  %5 = load i32, ptr @dump_indent, align 4
  %6 = icmp sgt i32 %5, 0
  br i1 %6, label %.lr.ph.i, label %dump_ind.exit

.lr.ph.i:                                         ; preds = %1, %.lr.ph.i
  %.02.i = phi i32 [ %8, %.lr.ph.i ], [ 0, %1 ]
  %7 = tail call i32 (ptr, ...) @pg_printf(ptr noundef nonnull @.str.79) #16
  %8 = add nuw nsw i32 %.02.i, 1
  %9 = load i32, ptr @dump_indent, align 4
  %10 = icmp slt i32 %8, %9
  br i1 %10, label %.lr.ph.i, label %dump_ind.exit, !llvm.loop !16

dump_ind.exit:                                    ; preds = %.lr.ph.i, %1
  %11 = tail call i32 (ptr, ...) @pg_printf(ptr noundef nonnull @.str.73, ptr noundef nonnull %.str.72.) #16
  %12 = getelementptr inbounds nuw i8, ptr %0, i64 24
  %13 = load ptr, ptr %12, align 8
  %14 = load i32, ptr @dump_indent, align 4
  %15 = add i32 %14, 2
  store i32 %15, ptr @dump_indent, align 4
  %16 = getelementptr inbounds nuw i8, ptr %13, i64 4
  %.not.i = icmp eq ptr %13, null
  br i1 %.not.i, label %dump_stmts.exit, label %.lr.ph

.lr.ph:                                           ; preds = %dump_ind.exit
  %17 = getelementptr inbounds nuw i8, ptr %13, i64 16
  %18 = load i32, ptr %16, align 4
  %19 = icmp sgt i32 %18, 0
  br i1 %19, label %.lr.ph52, label %dump_stmts.exit

.lr.ph52:                                         ; preds = %.lr.ph, %.lr.ph52
  %indvars.iv = phi i64 [ %indvars.iv.next, %.lr.ph52 ], [ 0, %.lr.ph ]
  %20 = load ptr, ptr %17, align 8
  %21 = getelementptr inbounds nuw %union.ListCell, ptr %20, i64 %indvars.iv
  %22 = load ptr, ptr %21, align 8
  tail call fastcc void @dump_stmt(ptr noundef %22)
  %indvars.iv.next = add nuw nsw i64 %indvars.iv, 1
  %23 = load i32, ptr %16, align 4
  %24 = sext i32 %23 to i64
  %25 = icmp slt i64 %indvars.iv.next, %24
  br i1 %25, label %.lr.ph52, label %dump_stmts.exit.loopexit

dump_stmts.exit.loopexit:                         ; preds = %.lr.ph52
  %.pre = load i32, ptr @dump_indent, align 4
  %26 = add i32 %.pre, -2
  br label %dump_stmts.exit

dump_stmts.exit:                                  ; preds = %dump_stmts.exit.loopexit, %.lr.ph, %dump_ind.exit
  %27 = phi i32 [ %26, %dump_stmts.exit.loopexit ], [ %14, %.lr.ph ], [ %14, %dump_ind.exit ]
  store i32 %27, ptr @dump_indent, align 4
  %28 = getelementptr inbounds nuw i8, ptr %0, i64 48
  %29 = load ptr, ptr %28, align 8
  %.not = icmp eq ptr %29, null
  br i1 %.not, label %.thread42, label %30

30:                                               ; preds = %dump_stmts.exit
  %31 = getelementptr inbounds nuw i8, ptr %29, i64 8
  %32 = load ptr, ptr %31, align 8
  %33 = getelementptr inbounds nuw i8, ptr %32, i64 4
  %.not24 = icmp eq ptr %32, null
  br i1 %.not24, label %.thread42, label %.lr.ph65

.lr.ph65:                                         ; preds = %30
  %34 = getelementptr inbounds nuw i8, ptr %32, i64 16
  %35 = load i32, ptr %33, align 4
  %36 = icmp sgt i32 %35, 0
  br i1 %36, label %.lr.ph78, label %.thread42

.lr.ph78:                                         ; preds = %.lr.ph65, %dump_stmts.exit35
  %indvars.iv7177 = phi i64 [ %indvars.iv.next72, %dump_stmts.exit35 ], [ 0, %.lr.ph65 ]
  %37 = phi i32 [ %72, %dump_stmts.exit35 ], [ %27, %.lr.ph65 ]
  %38 = load ptr, ptr %34, align 8
  %39 = getelementptr inbounds nuw %union.ListCell, ptr %38, i64 %indvars.iv7177
  %40 = load ptr, ptr %39, align 8
  %41 = icmp sgt i32 %37, 0
  br i1 %41, label %.lr.ph.i28, label %dump_ind.exit30

.lr.ph.i28:                                       ; preds = %.lr.ph78, %.lr.ph.i28
  %.02.i29 = phi i32 [ %43, %.lr.ph.i28 ], [ 0, %.lr.ph78 ]
  %42 = tail call i32 (ptr, ...) @pg_printf(ptr noundef nonnull @.str.79) #16
  %43 = add nuw nsw i32 %.02.i29, 1
  %44 = load i32, ptr @dump_indent, align 4
  %45 = icmp slt i32 %43, %44
  br i1 %45, label %.lr.ph.i28, label %dump_ind.exit30, !llvm.loop !16

dump_ind.exit30:                                  ; preds = %.lr.ph.i28, %.lr.ph78
  %46 = tail call i32 (ptr, ...) @pg_printf(ptr noundef nonnull @.str.74) #16
  %47 = getelementptr inbounds nuw i8, ptr %40, i64 8
  %.053 = load ptr, ptr %47, align 8
  %.not2654 = icmp eq ptr %.053, null
  br i1 %.not2654, label %._crit_edge, label %.lr.ph56

.lr.ph56:                                         ; preds = %dump_ind.exit30, %51
  %.055 = phi ptr [ %.0, %51 ], [ %.053, %dump_ind.exit30 ]
  %48 = load ptr, ptr %47, align 8
  %.not27 = icmp eq ptr %.055, %48
  br i1 %.not27, label %51, label %49

49:                                               ; preds = %.lr.ph56
  %50 = tail call i32 (ptr, ...) @pg_printf(ptr noundef nonnull @.str.75) #16
  br label %51

51:                                               ; preds = %49, %.lr.ph56
  %52 = getelementptr inbounds nuw i8, ptr %.055, i64 8
  %53 = load ptr, ptr %52, align 8
  %54 = tail call i32 (ptr, ...) @pg_printf(ptr noundef nonnull @.str.76, ptr noundef %53) #16
  %55 = getelementptr inbounds nuw i8, ptr %.055, i64 16
  %.0 = load ptr, ptr %55, align 8
  %.not26 = icmp eq ptr %.0, null
  br i1 %.not26, label %._crit_edge, label %.lr.ph56, !llvm.loop !17

._crit_edge:                                      ; preds = %51, %dump_ind.exit30
  %56 = tail call i32 (ptr, ...) @pg_printf(ptr noundef nonnull @.str.77) #16
  %57 = getelementptr inbounds nuw i8, ptr %40, i64 16
  %58 = load ptr, ptr %57, align 8
  %59 = load i32, ptr @dump_indent, align 4
  %60 = add i32 %59, 2
  store i32 %60, ptr @dump_indent, align 4
  %61 = getelementptr inbounds nuw i8, ptr %58, i64 4
  %.not.i32 = icmp eq ptr %58, null
  br i1 %.not.i32, label %dump_stmts.exit35, label %.lr.ph59

.lr.ph59:                                         ; preds = %._crit_edge
  %62 = getelementptr inbounds nuw i8, ptr %58, i64 16
  %63 = load i32, ptr %61, align 4
  %64 = icmp sgt i32 %63, 0
  br i1 %64, label %.lr.ph62, label %dump_stmts.exit35

.lr.ph62:                                         ; preds = %.lr.ph59, %.lr.ph62
  %indvars.iv68 = phi i64 [ %indvars.iv.next69, %.lr.ph62 ], [ 0, %.lr.ph59 ]
  %65 = load ptr, ptr %62, align 8
  %66 = getelementptr inbounds nuw %union.ListCell, ptr %65, i64 %indvars.iv68
  %67 = load ptr, ptr %66, align 8
  tail call fastcc void @dump_stmt(ptr noundef %67)
  %indvars.iv.next69 = add nuw nsw i64 %indvars.iv68, 1
  %68 = load i32, ptr %61, align 4
  %69 = sext i32 %68 to i64
  %70 = icmp slt i64 %indvars.iv.next69, %69
  br i1 %70, label %.lr.ph62, label %dump_stmts.exit35.loopexit

dump_stmts.exit35.loopexit:                       ; preds = %.lr.ph62
  %.pre74 = load i32, ptr @dump_indent, align 4
  %71 = add i32 %.pre74, -2
  br label %dump_stmts.exit35

dump_stmts.exit35:                                ; preds = %dump_stmts.exit35.loopexit, %.lr.ph59, %._crit_edge
  %72 = phi i32 [ %71, %dump_stmts.exit35.loopexit ], [ %59, %.lr.ph59 ], [ %59, %._crit_edge ]
  store i32 %72, ptr @dump_indent, align 4
  %indvars.iv.next72 = add nuw nsw i64 %indvars.iv7177, 1
  %73 = load i32, ptr %33, align 4
  %74 = sext i32 %73 to i64
  %75 = icmp slt i64 %indvars.iv.next72, %74
  br i1 %75, label %.lr.ph78, label %.thread42

.thread42:                                        ; preds = %dump_stmts.exit35, %.lr.ph65, %30, %dump_stmts.exit
  %76 = phi i32 [ %27, %dump_stmts.exit ], [ %27, %30 ], [ %27, %.lr.ph65 ], [ %72, %dump_stmts.exit35 ]
  %77 = icmp sgt i32 %76, 0
  br i1 %77, label %.lr.ph.i36, label %dump_ind.exit38

.lr.ph.i36:                                       ; preds = %.thread42, %.lr.ph.i36
  %.02.i37 = phi i32 [ %79, %.lr.ph.i36 ], [ 0, %.thread42 ]
  %78 = tail call i32 (ptr, ...) @pg_printf(ptr noundef nonnull @.str.79) #16
  %79 = add nuw nsw i32 %.02.i37, 1
  %80 = load i32, ptr @dump_indent, align 4
  %81 = icmp slt i32 %79, %80
  br i1 %81, label %.lr.ph.i36, label %dump_ind.exit38, !llvm.loop !16

dump_ind.exit38:                                  ; preds = %.lr.ph.i36, %.thread42
  %82 = tail call i32 (ptr, ...) @pg_printf(ptr noundef nonnull @.str.78, ptr noundef nonnull %.str.72.) #16
  ret void
}